; Function Attrs: nounwind uwtable
define noundef nonnull ptr @l_Lean_Meta_Grind_Arith_Cutsat_beqSupportedTermKind____x40_Lean_Meta_Tactic_Grind_Arith_Cutsat_EqCnstr___hyg_6442____boxed(ptr noundef %0, ptr noundef %1) #1 {
  %3 = ptrtoint ptr %0 to i64
  %4 = lshr i64 %3, 1
  %5 = trunc i64 %4 to i8
  %6 = and i64 %3, 1
  %.not = icmp eq i64 %6, 0
  br i1 %.not, label %7, label %lean_dec.exit7

7:                                                ; preds = %2
  %8 = load i32, ptr %0, align 4, !tbaa !4
  %9 = icmp sgt i32 %8, 1
  br i1 %9, label %10, label %12, !prof !11

10:                                               ; preds = %7
  %11 = add nsw i32 %8, -1
  store i32 %11, ptr %0, align 4, !tbaa !4
  br label %lean_dec.exit7

12:                                               ; preds = %7
  %.not.i = icmp eq i32 %8, 0
  br i1 %.not.i, label %lean_dec.exit7, label %13

13:                                               ; preds = %12
  tail call void @lean_dec_ref_cold(ptr noundef nonnull %0) #7
  br label %lean_dec.exit7

lean_dec.exit7:                                   ; preds = %13, %12, %10, %2
  %14 = ptrtoint ptr %1 to i64
  %15 = lshr i64 %14, 1
  %16 = trunc i64 %15 to i8
  %17 = and i64 %14, 1
  %.not10 = icmp eq i64 %17, 0
  br i1 %.not10, label %18, label %lean_dec.exit

18:                                               ; preds = %lean_dec.exit7
  %19 = load i32, ptr %1, align 4, !tbaa !4
  %20 = icmp sgt i32 %19, 1
  br i1 %20, label %21, label %23, !prof !11

21:                                               ; preds = %18
  %22 = add nsw i32 %19, -1
  store i32 %22, ptr %1, align 4, !tbaa !4
  br label %lean_dec.exit

23:                                               ; preds = %18
  %.not.i8 = icmp eq i32 %19, 0
  br i1 %.not.i8, label %lean_dec.exit, label %24

24:                                               ; preds = %23
  tail call void @lean_dec_ref_cold(ptr noundef nonnull %1) #7
  br label %lean_dec.exit

lean_dec.exit:                                    ; preds = %24, %23, %21, %lean_dec.exit7
  switch i8 %5, label %31 [
    i8 0, label %l___private_Lean_Meta_Tactic_Grind_Arith_Cutsat_EqCnstr_0__Lean_Meta_Grind_Arith_Cutsat_SupportedTermKind_toCtorIdx.exit.i
    i8 1, label %25
    i8 2, label %26
    i8 3, label %27
    i8 4, label %28
    i8 5, label %29
    i8 6, label %30
  ]

25:                                               ; preds = %lean_dec.exit
  br label %l___private_Lean_Meta_Tactic_Grind_Arith_Cutsat_EqCnstr_0__Lean_Meta_Grind_Arith_Cutsat_SupportedTermKind_toCtorIdx.exit.i

26:                                               ; preds = %lean_dec.exit
  br label %l___private_Lean_Meta_Tactic_Grind_Arith_Cutsat_EqCnstr_0__Lean_Meta_Grind_Arith_Cutsat_SupportedTermKind_toCtorIdx.exit.i

27:                                               ; preds = %lean_dec.exit
  br label %l___private_Lean_Meta_Tactic_Grind_Arith_Cutsat_EqCnstr_0__Lean_Meta_Grind_Arith_Cutsat_SupportedTermKind_toCtorIdx.exit.i

28:                                               ; preds = %lean_dec.exit
  br label %l___private_Lean_Meta_Tactic_Grind_Arith_Cutsat_EqCnstr_0__Lean_Meta_Grind_Arith_Cutsat_SupportedTermKind_toCtorIdx.exit.i

29:                                               ; preds = %lean_dec.exit
  br label %l___private_Lean_Meta_Tactic_Grind_Arith_Cutsat_EqCnstr_0__Lean_Meta_Grind_Arith_Cutsat_SupportedTermKind_toCtorIdx.exit.i

30:                                               ; preds = %lean_dec.exit
  br label %l___private_Lean_Meta_Tactic_Grind_Arith_Cutsat_EqCnstr_0__Lean_Meta_Grind_Arith_Cutsat_SupportedTermKind_toCtorIdx.exit.i

31:                                               ; preds = %lean_dec.exit
  br label %l___private_Lean_Meta_Tactic_Grind_Arith_Cutsat_EqCnstr_0__Lean_Meta_Grind_Arith_Cutsat_SupportedTermKind_toCtorIdx.exit.i

l___private_Lean_Meta_Tactic_Grind_Arith_Cutsat_EqCnstr_0__Lean_Meta_Grind_Arith_Cutsat_SupportedTermKind_toCtorIdx.exit.i: ; preds = %31, %30, %29, %28, %27, %26, %25, %lean_dec.exit
  %.0.i9.i = phi ptr [ inttoptr (i64 15 to ptr), %31 ], [ inttoptr (i64 13 to ptr), %30 ], [ inttoptr (i64 11 to ptr), %29 ], [ inttoptr (i64 9 to ptr), %28 ], [ inttoptr (i64 7 to ptr), %27 ], [ inttoptr (i64 5 to ptr), %26 ], [ inttoptr (i64 3 to ptr), %25 ], [ inttoptr (i64 1 to ptr), %lean_dec.exit ]
  switch i8 %16, label %38 [
    i8 0, label %l_Lean_Meta_Grind_Arith_Cutsat_beqSupportedTermKind____x40_Lean_Meta_Tactic_Grind_Arith_Cutsat_EqCnstr___hyg_6442_.exit
    i8 1, label %32
    i8 2, label %33
    i8 3, label %34
    i8 4, label %35
    i8 5, label %36
    i8 6, label %37
  ]

32:                                               ; preds = %l___private_Lean_Meta_Tactic_Grind_Arith_Cutsat_EqCnstr_0__Lean_Meta_Grind_Arith_Cutsat_SupportedTermKind_toCtorIdx.exit.i
  br label %l_Lean_Meta_Grind_Arith_Cutsat_beqSupportedTermKind____x40_Lean_Meta_Tactic_Grind_Arith_Cutsat_EqCnstr___hyg_6442_.exit

33:                                               ; preds = %l___private_Lean_Meta_Tactic_Grind_Arith_Cutsat_EqCnstr_0__Lean_Meta_Grind_Arith_Cutsat_SupportedTermKind_toCtorIdx.exit.i
  br label %l_Lean_Meta_Grind_Arith_Cutsat_beqSupportedTermKind____x40_Lean_Meta_Tactic_Grind_Arith_Cutsat_EqCnstr___hyg_6442_.exit

34:                                               ; preds = %l___private_Lean_Meta_Tactic_Grind_Arith_Cutsat_EqCnstr_0__Lean_Meta_Grind_Arith_Cutsat_SupportedTermKind_toCtorIdx.exit.i
  br label %l_Lean_Meta_Grind_Arith_Cutsat_beqSupportedTermKind____x40_Lean_Meta_Tactic_Grind_Arith_Cutsat_EqCnstr___hyg_6442_.exit

35:                                               ; preds = %l___private_Lean_Meta_Tactic_Grind_Arith_Cutsat_EqCnstr_0__Lean_Meta_Grind_Arith_Cutsat_SupportedTermKind_toCtorIdx.exit.i
  br label %l_Lean_Meta_Grind_Arith_Cutsat_beqSupportedTermKind____x40_Lean_Meta_Tactic_Grind_Arith_Cutsat_EqCnstr___hyg_6442_.exit

36:                                               ; preds = %l___private_Lean_Meta_Tactic_Grind_Arith_Cutsat_EqCnstr_0__Lean_Meta_Grind_Arith_Cutsat_SupportedTermKind_toCtorIdx.exit.i
  br label %l_Lean_Meta_Grind_Arith_Cutsat_beqSupportedTermKind____x40_Lean_Meta_Tactic_Grind_Arith_Cutsat_EqCnstr___hyg_6442_.exit

37:                                               ; preds = %l___private_Lean_Meta_Tactic_Grind_Arith_Cutsat_EqCnstr_0__Lean_Meta_Grind_Arith_Cutsat_SupportedTermKind_toCtorIdx.exit.i
  br label %l_Lean_Meta_Grind_Arith_Cutsat_beqSupportedTermKind____x40_Lean_Meta_Tactic_Grind_Arith_Cutsat_EqCnstr___hyg_6442_.exit

38:                                               ; preds = %l___private_Lean_Meta_Tactic_Grind_Arith_Cutsat_EqCnstr_0__Lean_Meta_Grind_Arith_Cutsat_SupportedTermKind_toCtorIdx.exit.i
  br label %l_Lean_Meta_Grind_Arith_Cutsat_beqSupportedTermKind____x40_Lean_Meta_Tactic_Grind_Arith_Cutsat_EqCnstr___hyg_6442_.exit

l_Lean_Meta_Grind_Arith_Cutsat_beqSupportedTermKind____x40_Lean_Meta_Tactic_Grind_Arith_Cutsat_EqCnstr___hyg_6442_.exit: ; preds = %l___private_Lean_Meta_Tactic_Grind_Arith_Cutsat_EqCnstr_0__Lean_Meta_Grind_Arith_Cutsat_SupportedTermKind_toCtorIdx.exit.i, %32, %33, %34, %35, %36, %37, %38
  %.0.i10.i = phi ptr [ inttoptr (i64 15 to ptr), %38 ], [ inttoptr (i64 13 to ptr), %37 ], [ inttoptr (i64 11 to ptr), %36 ], [ inttoptr (i64 9 to ptr), %35 ], [ inttoptr (i64 7 to ptr), %34 ], [ inttoptr (i64 5 to ptr), %33 ], [ inttoptr (i64 3 to ptr), %32 ], [ inttoptr (i64 1 to ptr), %l___private_Lean_Meta_Tactic_Grind_Arith_Cutsat_EqCnstr_0__Lean_Meta_Grind_Arith_Cutsat_SupportedTermKind_toCtorIdx.exit.i ]
  %39 = icmp eq ptr %.0.i9.i, %.0.i10.i
  %40 = select i1 %39, ptr inttoptr (i64 3 to ptr), ptr inttoptr (i64 1 to ptr)
  ret ptr %40
}